target datalayout = "e-m:e-p270:32:32-p271:32:32-p272:64:64-i64:64-i128:128-f80:128-n8:16:32:64-S128"
target triple = "x86_64-pc-linux-gnu"

%struct.uat_ue_keys_record_t = type { i32, ptr, ptr, ptr, ptr, [16 x i8], i8, [16 x i8], i8, [16 x i8], i8, [16 x i8], i8 }

; Function Attrs: null_pointer_is_valid sspstrong uwtable
define internal zeroext i1 @uat_ue_keys_record_update_cb(ptr noundef %0, ptr noundef %1) #0 {
  %3 = alloca ptr, align 8
  %4 = alloca ptr, align 8
  %5 = alloca ptr, align 8
  store ptr %0, ptr %3, align 8
  store ptr %1, ptr %4, align 8
  call void @llvm.lifetime.start.p0(i64 8, ptr %5) #15
  %6 = load ptr, ptr %3, align 8
  store ptr %6, ptr %5, align 8
  %7 = load ptr, ptr %5, align 8
  %8 = getelementptr inbounds nuw %struct.uat_ue_keys_record_t, ptr %7, i32 0, i32 1
  %9 = load ptr, ptr %8, align 8
  %10 = load ptr, ptr %5, align 8
  %11 = getelementptr inbounds nuw %struct.uat_ue_keys_record_t, ptr %10, i32 0, i32 5
  %12 = getelementptr inbounds [16 x i8], ptr %11, i64 0, i64 0
  %13 = load ptr, ptr %5, align 8
  %14 = getelementptr inbounds nuw %struct.uat_ue_keys_record_t, ptr %13, i32 0, i32 6
  %15 = load ptr, ptr %4, align 8
  call void @update_key_from_string(ptr noundef %9, ptr noundef %12, ptr noundef %14, ptr noundef %15)
  %16 = load ptr, ptr %5, align 8
  %17 = getelementptr inbounds nuw %struct.uat_ue_keys_record_t, ptr %16, i32 0, i32 2
  %18 = load ptr, ptr %17, align 8
  %19 = load ptr, ptr %5, align 8
  %20 = getelementptr inbounds nuw %struct.uat_ue_keys_record_t, ptr %19, i32 0, i32 7
  %21 = getelementptr inbounds [16 x i8], ptr %20, i64 0, i64 0
  %22 = load ptr, ptr %5, align 8
  %23 = getelementptr inbounds nuw %struct.uat_ue_keys_record_t, ptr %22, i32 0, i32 8
  %24 = load ptr, ptr %4, align 8
  call void @update_key_from_string(ptr noundef %18, ptr noundef %21, ptr noundef %23, ptr noundef %24)
  %25 = load ptr, ptr %5, align 8
  %26 = getelementptr inbounds nuw %struct.uat_ue_keys_record_t, ptr %25, i32 0, i32 3
  %27 = load ptr, ptr %26, align 8
  %28 = load ptr, ptr %5, align 8
  %29 = getelementptr inbounds nuw %struct.uat_ue_keys_record_t, ptr %28, i32 0, i32 9
  %30 = getelementptr inbounds [16 x i8], ptr %29, i64 0, i64 0
  %31 = load ptr, ptr %5, align 8
  %32 = getelementptr inbounds nuw %struct.uat_ue_keys_record_t, ptr %31, i32 0, i32 10
  %33 = load ptr, ptr %4, align 8
  call void @update_key_from_string(ptr noundef %27, ptr noundef %30, ptr noundef %32, ptr noundef %33)
  %34 = load ptr, ptr %5, align 8
  %35 = getelementptr inbounds nuw %struct.uat_ue_keys_record_t, ptr %34, i32 0, i32 4
  %36 = load ptr, ptr %35, align 8
  %37 = load ptr, ptr %5, align 8
  %38 = getelementptr inbounds nuw %struct.uat_ue_keys_record_t, ptr %37, i32 0, i32 11
  %39 = getelementptr inbounds [16 x i8], ptr %38, i64 0, i64 0
  %40 = load ptr, ptr %5, align 8
  %41 = getelementptr inbounds nuw %struct.uat_ue_keys_record_t, ptr %40, i32 0, i32 12
  %42 = load ptr, ptr %4, align 8
  call void @update_key_from_string(ptr noundef %36, ptr noundef %39, ptr noundef %41, ptr noundef %42)
  %43 = load ptr, ptr %4, align 8
  %44 = load ptr, ptr %43, align 8
  %45 = icmp eq ptr %44, null
  call void @llvm.lifetime.end.p0(i64 8, ptr %5) #15
  ret i1 %45
}