; Function Attrs: null_pointer_is_valid sspstrong uwtable
define internal zeroext i1 @uat_ue_keys_record_update_cb(ptr noundef captures(none) %0, ptr noundef captures(none) %1) #0 {
  %3 = getelementptr inbounds nuw i8, ptr %0, i64 8
  %4 = load ptr, ptr %3, align 8
  %5 = getelementptr inbounds nuw i8, ptr %0, i64 40
  %6 = getelementptr inbounds nuw i8, ptr %0, i64 56
  tail call fastcc void @update_key_from_string(ptr noundef %4, ptr noundef nonnull %5, ptr noundef nonnull %6, ptr noundef %1)
  %7 = getelementptr inbounds nuw i8, ptr %0, i64 16
  %8 = load ptr, ptr %7, align 8
  %9 = getelementptr inbounds nuw i8, ptr %0, i64 57
  %10 = getelementptr inbounds nuw i8, ptr %0, i64 73
  tail call fastcc void @update_key_from_string(ptr noundef %8, ptr noundef nonnull %9, ptr noundef nonnull %10, ptr noundef %1)
  %11 = getelementptr inbounds nuw i8, ptr %0, i64 24
  %12 = load ptr, ptr %11, align 8
  %13 = getelementptr inbounds nuw i8, ptr %0, i64 74
  %14 = getelementptr inbounds nuw i8, ptr %0, i64 90
  tail call fastcc void @update_key_from_string(ptr noundef %12, ptr noundef nonnull %13, ptr noundef nonnull %14, ptr noundef %1)
  %15 = getelementptr inbounds nuw i8, ptr %0, i64 32
  %16 = load ptr, ptr %15, align 8
  %17 = getelementptr inbounds nuw i8, ptr %0, i64 91
  %18 = getelementptr inbounds nuw i8, ptr %0, i64 107
  tail call fastcc void @update_key_from_string(ptr noundef %16, ptr noundef nonnull %17, ptr noundef nonnull %18, ptr noundef %1)
  %19 = load ptr, ptr %1, align 8
  %20 = icmp eq ptr %19, null
  ret i1 %20
}